; Function Attrs: nounwind sspstrong uwtable
define dso_local noundef zeroext i1 @visit_type_BlockdevOptionsCor(ptr noundef %v, ptr noundef %name, ptr noundef %obj, ptr noundef %errp) local_unnamed_addr #0 {
entry:
  %has_bottom.i = alloca i8, align 1
  %call = tail call zeroext i1 @visit_start_struct(ptr noundef %v, ptr noundef %name, ptr noundef %obj, i64 noundef 16, ptr noundef %errp) #5
  br i1 %call, label %if.end, label %return

if.end:                                           ; preds = %entry
  %0 = load ptr, ptr %obj, align 8
  %tobool.not = icmp eq ptr %0, null
  br i1 %tobool.not, label %if.then1, label %if.end5

if.then1:                                         ; preds = %if.end
  %call2 = tail call zeroext i1 @visit_is_dealloc(ptr noundef %v) #5
  br i1 %call2, label %out_obj.thread, label %if.else

out_obj.thread:                                   ; preds = %if.then1
  tail call void @visit_end_struct(ptr noundef %v, ptr noundef nonnull %obj) #5
  br label %return

if.else:                                          ; preds = %if.then1
  tail call void @__assert_fail(ptr noundef nonnull @.str.8, ptr noundef nonnull @.str.9, i32 noundef 7323, ptr noundef nonnull @__PRETTY_FUNCTION__.visit_type_BlockdevOptionsCor) #6
  unreachable

if.end5:                                          ; preds = %if.end
  call void @llvm.lifetime.start.p0(i64 1, ptr nonnull %has_bottom.i)
  %bottom.i = getelementptr inbounds nuw i8, ptr %0, i64 8
  %1 = load ptr, ptr %bottom.i, align 8
  %tobool.i = icmp ne ptr %1, null
  %frombool.i = zext i1 %tobool.i to i8
  store i8 %frombool.i, ptr %has_bottom.i, align 1
  %call.i.i = tail call zeroext i1 @visit_type_BlockdevRef(ptr noundef %v, ptr noundef nonnull @.str.63, ptr noundef nonnull %0, ptr noundef %errp) #7
  br i1 %call.i.i, label %if.end.i, label %out_obj.thread16

if.end.i:                                         ; preds = %if.end5
  %call2.i = call zeroext i1 @visit_optional(ptr noundef %v, ptr noundef nonnull @.str.267, ptr noundef nonnull %has_bottom.i) #5
  br i1 %call2.i, label %if.then3.i, label %out_obj

if.then3.i:                                       ; preds = %if.end.i
  %call5.i = call zeroext i1 @visit_type_str(ptr noundef %v, ptr noundef nonnull @.str.267, ptr noundef nonnull %bottom.i, ptr noundef %errp) #5
  br i1 %call5.i, label %out_obj, label %out_obj.thread16

out_obj.thread16:                                 ; preds = %if.then3.i, %if.end5
  call void @llvm.lifetime.end.p0(i64 1, ptr nonnull %has_bottom.i)
  call void @visit_end_struct(ptr noundef %v, ptr noundef nonnull %obj) #5
  br label %land.lhs.true

out_obj:                                          ; preds = %if.end.i, %if.then3.i
  call void @llvm.lifetime.end.p0(i64 1, ptr nonnull %has_bottom.i)
  %call9 = call zeroext i1 @visit_check_struct(ptr noundef %v, ptr noundef %errp) #5
  call void @visit_end_struct(ptr noundef %v, ptr noundef nonnull %obj) #5
  br i1 %call9, label %return, label %land.lhs.true

land.lhs.true:                                    ; preds = %out_obj.thread16, %out_obj
  %call11 = call zeroext i1 @visit_is_input(ptr noundef %v) #5
  br i1 %call11, label %if.then12, label %return

if.then12:                                        ; preds = %land.lhs.true
  %2 = load ptr, ptr %obj, align 8
  call void @qapi_free_BlockdevOptionsCor(ptr noundef %2) #5
  store ptr null, ptr %obj, align 8
  br label %return

return:                                           ; preds = %out_obj.thread, %out_obj, %land.lhs.true, %if.then12, %entry
  %retval.0 = phi i1 [ false, %entry ], [ false, %if.then12 ], [ false, %land.lhs.true ], [ true, %out_obj ], [ true, %out_obj.thread ]
  ret i1 %retval.0
}